; Function Attrs: null_pointer_is_valid sspstrong uwtable
define internal fastcc void @add_ipv4_dst_address(ptr noundef %0, ptr noundef %1, ptr noundef initializes((184, 208), (232, 256)) %2, i32 noundef range(i32 4, 17) %3, ptr noundef %4) unnamed_addr #0 {
  %6 = getelementptr inbounds nuw i8, ptr %2, i64 184
  %7 = tail call ptr @tvb_get_ptr(ptr noundef %1, i32 noundef range(i32 0, 17) %3, i32 noundef 4)
  store i32 2, ptr %6, align 8
  %8 = getelementptr inbounds nuw i8, ptr %2, i64 188
  store i32 4, ptr %8, align 4
  %9 = getelementptr inbounds nuw i8, ptr %2, i64 192
  store ptr %7, ptr %9, align 8
  %10 = getelementptr inbounds nuw i8, ptr %2, i64 200
  store ptr null, ptr %10, align 8
  %11 = getelementptr inbounds nuw i8, ptr %2, i64 232
  store i32 2, ptr %11, align 8
  %12 = getelementptr inbounds nuw i8, ptr %2, i64 236
  store i32 4, ptr %12, align 4
  %13 = getelementptr inbounds nuw i8, ptr %2, i64 240
  store ptr %7, ptr %13, align 8
  %14 = getelementptr inbounds nuw i8, ptr %2, i64 248
  store ptr null, ptr %14, align 8
  %.not = icmp eq ptr %0, null
  br i1 %.not, label %proto_item_set_hidden.exit38, label %15

15:                                               ; preds = %5
  %16 = load i32, ptr %7, align 1
  %17 = tail call ptr @get_hostname(i32 noundef %16)
  %18 = getelementptr inbounds nuw i8, ptr %2, i64 408
  %19 = load ptr, ptr %18, align 8
  %20 = tail call ptr @address_with_resolution_to_str(ptr noundef %19, ptr noundef nonnull %6)
  tail call void (ptr, ptr, ...) @proto_item_append_text(ptr noundef %4, ptr noundef nonnull @.str.382, ptr noundef %20)
  %21 = load i32, ptr @hf_ip_dst, align 4
  %22 = tail call ptr @proto_tree_add_ipv4(ptr noundef nonnull %0, i32 noundef %21, ptr noundef %1, i32 noundef %3, i32 noundef 4, i32 noundef %16)
  %23 = load i32, ptr @hf_ip_addr, align 4
  %24 = tail call ptr @proto_tree_add_ipv4(ptr noundef nonnull %0, i32 noundef %23, ptr noundef %1, i32 noundef %3, i32 noundef 4, i32 noundef %16)
  %.not.i = icmp eq ptr %24, null
  br i1 %.not.i, label %proto_item_set_hidden.exit, label %25

25:                                               ; preds = %15
  %26 = getelementptr inbounds nuw i8, ptr %24, i64 40
  %27 = load ptr, ptr %26, align 8
  %.not5.i = icmp eq ptr %27, null
  br i1 %.not5.i, label %proto_item_set_hidden.exit, label %28

28:                                               ; preds = %25
  %29 = getelementptr inbounds nuw i8, ptr %27, i64 28
  %30 = load i32, ptr %29, align 4
  %31 = or i32 %30, 1
  store i32 %31, ptr %29, align 4
  br label %proto_item_set_hidden.exit

proto_item_set_hidden.exit:                       ; preds = %15, %25, %28
  %32 = load i32, ptr @hf_ip_dst_host, align 4
  %33 = tail call ptr @proto_tree_add_string(ptr noundef nonnull %0, i32 noundef %32, ptr noundef %1, i32 noundef %3, i32 noundef 4, ptr noundef %17)
  %.not.i28 = icmp eq ptr %33, null
  br i1 %.not.i28, label %proto_item_set_hidden.exit32, label %34

34:                                               ; preds = %proto_item_set_hidden.exit
  %35 = getelementptr inbounds nuw i8, ptr %33, i64 40
  %36 = load ptr, ptr %35, align 8
  %.not5.i29 = icmp eq ptr %36, null
  br i1 %.not5.i29, label %proto_item_set_hidden.exit32, label %37

37:                                               ; preds = %34
  %38 = getelementptr inbounds nuw i8, ptr %36, i64 28
  %39 = load i32, ptr %38, align 4
  %40 = or i32 %39, 2
  store i32 %40, ptr %38, align 4
  %.pre = load ptr, ptr %35, align 8
  %.not5.i31 = icmp eq ptr %.pre, null
  br i1 %.not5.i31, label %proto_item_set_hidden.exit32, label %41

41:                                               ; preds = %37
  %42 = getelementptr inbounds nuw i8, ptr %.pre, i64 28
  %43 = load i32, ptr %42, align 4
  %44 = or i32 %43, 1
  store i32 %44, ptr %42, align 4
  br label %proto_item_set_hidden.exit32

proto_item_set_hidden.exit32:                     ; preds = %34, %proto_item_set_hidden.exit, %37, %41
  %45 = load i32, ptr @hf_ip_host, align 4
  %46 = tail call ptr @proto_tree_add_string(ptr noundef nonnull %0, i32 noundef %45, ptr noundef %1, i32 noundef %3, i32 noundef 4, ptr noundef %17)
  %.not.i33 = icmp eq ptr %46, null
  br i1 %.not.i33, label %proto_item_set_hidden.exit38, label %47

47:                                               ; preds = %proto_item_set_hidden.exit32
  %48 = getelementptr inbounds nuw i8, ptr %46, i64 40
  %49 = load ptr, ptr %48, align 8
  %.not5.i34 = icmp eq ptr %49, null
  br i1 %.not5.i34, label %proto_item_set_hidden.exit38, label %50

50:                                               ; preds = %47
  %51 = getelementptr inbounds nuw i8, ptr %49, i64 28
  %52 = load i32, ptr %51, align 4
  %53 = or i32 %52, 2
  store i32 %53, ptr %51, align 4
  %.pre39 = load ptr, ptr %48, align 8
  %.not5.i37 = icmp eq ptr %.pre39, null
  br i1 %.not5.i37, label %proto_item_set_hidden.exit38, label %54

54:                                               ; preds = %50
  %55 = getelementptr inbounds nuw i8, ptr %.pre39, i64 28
  %56 = load i32, ptr %55, align 4
  %57 = or i32 %56, 1
  store i32 %57, ptr %55, align 4
  br label %proto_item_set_hidden.exit38

proto_item_set_hidden.exit38:                     ; preds = %47, %54, %50, %proto_item_set_hidden.exit32, %5
  ret void
}